target datalayout = "e-m:e-p270:32:32-p271:32:32-p272:64:64-i64:64-i128:128-f80:128-n8:16:32:64-S128"
target triple = "x86_64-pc-linux-gnu"

%struct.H5O_layout_chunk_t = type { i32, i8, i32, [33 x i32], i32, i32, i64, i64, [33 x i64], [33 x i64], [33 x i64], [33 x i64], %union.anon.0 }
%union.anon.0 = type { %struct.H5O_layout_chunk_earray_t }
%struct.H5O_layout_chunk_earray_t = type { %struct.anon.1, i32, [33 x i32], [33 x i64], [33 x i64] }
%struct.anon.1 = type { i8, i8, i8, i8, i8 }
%struct.H5B_shared_t = type { ptr, i32, i64, i64, i64, i64, i64, ptr, ptr, ptr }
%struct.H5D_btree_key_t = type { [33 x i64], i32, i32 }

@H5D_init_g = external global i8, align 1
@H5_libterm_g = external global i8, align 1

; Function Attrs: nounwind uwtable
define internal i32 @H5D__btree_encode_key(ptr noundef %0, ptr noundef %1, ptr noundef %2) #0 {
  %4 = alloca ptr, align 8
  %5 = alloca ptr, align 8
  %6 = alloca ptr, align 8
  %7 = alloca ptr, align 8
  %8 = alloca ptr, align 8
  %9 = alloca i64, align 8
  %10 = alloca i32, align 4
  %11 = alloca i64, align 8
  %12 = alloca i64, align 8
  %13 = alloca ptr, align 8
  store ptr %0, ptr %4, align 8, !tbaa !70
  store ptr %1, ptr %5, align 8, !tbaa !97
  store ptr %2, ptr %6, align 8, !tbaa !41
  call void @llvm.lifetime.start.p0(i64 8, ptr %7) #8
  call void @llvm.lifetime.start.p0(i64 8, ptr %8) #8
  %14 = load ptr, ptr %6, align 8, !tbaa !41
  store ptr %14, ptr %8, align 8, !tbaa !78
  call void @llvm.lifetime.start.p0(i64 8, ptr %9) #8
  call void @llvm.lifetime.start.p0(i64 4, ptr %10) #8
  %15 = load i8, ptr @H5D_init_g, align 1, !tbaa !14, !range !16, !noundef !17
  %16 = trunc i8 %15 to i1
  br i1 %16, label %21, label %17

17:                                               ; preds = %3
  %18 = load i8, ptr @H5_libterm_g, align 1, !tbaa !14, !range !16, !noundef !17
  %19 = trunc i8 %18 to i1
  %20 = xor i1 %19, true
  br label %21

21:                                               ; preds = %17, %3
  %22 = phi i1 [ true, %3 ], [ %20, %17 ]
  %23 = xor i1 %22, true
  %24 = xor i1 %23, true
  %25 = zext i1 %24 to i32
  %26 = sext i32 %25 to i64
  %27 = call i64 @llvm.expect.i64(i64 %26, i64 1)
  %28 = icmp ne i64 %27, 0
  br i1 %28, label %29, label %166

29:                                               ; preds = %21
  %30 = load ptr, ptr %4, align 8, !tbaa !70
  %31 = getelementptr inbounds nuw %struct.H5B_shared_t, ptr %30, i32 0, i32 9
  %32 = load ptr, ptr %31, align 8, !tbaa !72
  store ptr %32, ptr %7, align 8, !tbaa !69
  br label %33

33:                                               ; preds = %29
  %34 = load ptr, ptr %8, align 8, !tbaa !78
  %35 = getelementptr inbounds nuw %struct.H5D_btree_key_t, ptr %34, i32 0, i32 1
  %36 = load i32, ptr %35, align 8, !tbaa !86
  %37 = and i32 %36, 255
  %38 = trunc i32 %37 to i8
  %39 = load ptr, ptr %5, align 8, !tbaa !97
  store i8 %38, ptr %39, align 1, !tbaa !24
  %40 = load ptr, ptr %5, align 8, !tbaa !97
  %41 = getelementptr inbounds nuw i8, ptr %40, i32 1
  store ptr %41, ptr %5, align 8, !tbaa !97
  %42 = load ptr, ptr %8, align 8, !tbaa !78
  %43 = getelementptr inbounds nuw %struct.H5D_btree_key_t, ptr %42, i32 0, i32 1
  %44 = load i32, ptr %43, align 8, !tbaa !86
  %45 = lshr i32 %44, 8
  %46 = and i32 %45, 255
  %47 = trunc i32 %46 to i8
  %48 = load ptr, ptr %5, align 8, !tbaa !97
  store i8 %47, ptr %48, align 1, !tbaa !24
  %49 = load ptr, ptr %5, align 8, !tbaa !97
  %50 = getelementptr inbounds nuw i8, ptr %49, i32 1
  store ptr %50, ptr %5, align 8, !tbaa !97
  %51 = load ptr, ptr %8, align 8, !tbaa !78
  %52 = getelementptr inbounds nuw %struct.H5D_btree_key_t, ptr %51, i32 0, i32 1
  %53 = load i32, ptr %52, align 8, !tbaa !86
  %54 = lshr i32 %53, 16
  %55 = and i32 %54, 255
  %56 = trunc i32 %55 to i8
  %57 = load ptr, ptr %5, align 8, !tbaa !97
  store i8 %56, ptr %57, align 1, !tbaa !24
  %58 = load ptr, ptr %5, align 8, !tbaa !97
  %59 = getelementptr inbounds nuw i8, ptr %58, i32 1
  store ptr %59, ptr %5, align 8, !tbaa !97
  %60 = load ptr, ptr %8, align 8, !tbaa !78
  %61 = getelementptr inbounds nuw %struct.H5D_btree_key_t, ptr %60, i32 0, i32 1
  %62 = load i32, ptr %61, align 8, !tbaa !86
  %63 = lshr i32 %62, 24
  %64 = and i32 %63, 255
  %65 = trunc i32 %64 to i8
  %66 = load ptr, ptr %5, align 8, !tbaa !97
  store i8 %65, ptr %66, align 1, !tbaa !24
  %67 = load ptr, ptr %5, align 8, !tbaa !97
  %68 = getelementptr inbounds nuw i8, ptr %67, i32 1
  store ptr %68, ptr %5, align 8, !tbaa !97
  br label %69

69:                                               ; preds = %33
  br label %70

70:                                               ; preds = %69
  br label %71

71:                                               ; preds = %70
  %72 = load ptr, ptr %8, align 8, !tbaa !78
  %73 = getelementptr inbounds nuw %struct.H5D_btree_key_t, ptr %72, i32 0, i32 2
  %74 = load i32, ptr %73, align 4, !tbaa !89
  %75 = and i32 %74, 255
  %76 = trunc i32 %75 to i8
  %77 = load ptr, ptr %5, align 8, !tbaa !97
  store i8 %76, ptr %77, align 1, !tbaa !24
  %78 = load ptr, ptr %5, align 8, !tbaa !97
  %79 = getelementptr inbounds nuw i8, ptr %78, i32 1
  store ptr %79, ptr %5, align 8, !tbaa !97
  %80 = load ptr, ptr %8, align 8, !tbaa !78
  %81 = getelementptr inbounds nuw %struct.H5D_btree_key_t, ptr %80, i32 0, i32 2
  %82 = load i32, ptr %81, align 4, !tbaa !89
  %83 = lshr i32 %82, 8
  %84 = and i32 %83, 255
  %85 = trunc i32 %84 to i8
  %86 = load ptr, ptr %5, align 8, !tbaa !97
  store i8 %85, ptr %86, align 1, !tbaa !24
  %87 = load ptr, ptr %5, align 8, !tbaa !97
  %88 = getelementptr inbounds nuw i8, ptr %87, i32 1
  store ptr %88, ptr %5, align 8, !tbaa !97
  %89 = load ptr, ptr %8, align 8, !tbaa !78
  %90 = getelementptr inbounds nuw %struct.H5D_btree_key_t, ptr %89, i32 0, i32 2
  %91 = load i32, ptr %90, align 4, !tbaa !89
  %92 = lshr i32 %91, 16
  %93 = and i32 %92, 255
  %94 = trunc i32 %93 to i8
  %95 = load ptr, ptr %5, align 8, !tbaa !97
  store i8 %94, ptr %95, align 1, !tbaa !24
  %96 = load ptr, ptr %5, align 8, !tbaa !97
  %97 = getelementptr inbounds nuw i8, ptr %96, i32 1
  store ptr %97, ptr %5, align 8, !tbaa !97
  %98 = load ptr, ptr %8, align 8, !tbaa !78
  %99 = getelementptr inbounds nuw %struct.H5D_btree_key_t, ptr %98, i32 0, i32 2
  %100 = load i32, ptr %99, align 4, !tbaa !89
  %101 = lshr i32 %100, 24
  %102 = and i32 %101, 255
  %103 = trunc i32 %102 to i8
  %104 = load ptr, ptr %5, align 8, !tbaa !97
  store i8 %103, ptr %104, align 1, !tbaa !24
  %105 = load ptr, ptr %5, align 8, !tbaa !97
  %106 = getelementptr inbounds nuw i8, ptr %105, i32 1
  store ptr %106, ptr %5, align 8, !tbaa !97
  br label %107

107:                                              ; preds = %71
  br label %108

108:                                              ; preds = %107
  store i32 0, ptr %10, align 4, !tbaa !12
  br label %109

109:                                              ; preds = %162, %108
  %110 = load i32, ptr %10, align 4, !tbaa !12
  %111 = load ptr, ptr %7, align 8, !tbaa !69
  %112 = getelementptr inbounds nuw %struct.H5O_layout_chunk_t, ptr %111, i32 0, i32 2
  %113 = load i32, ptr %112, align 8, !tbaa !60
  %114 = icmp ult i32 %110, %113
  br i1 %114, label %115, label %165

115:                                              ; preds = %109
  %116 = load ptr, ptr %8, align 8, !tbaa !78
  %117 = getelementptr inbounds nuw %struct.H5D_btree_key_t, ptr %116, i32 0, i32 0
  %118 = load i32, ptr %10, align 4, !tbaa !12
  %119 = zext i32 %118 to i64
  %120 = getelementptr inbounds nuw [33 x i64], ptr %117, i64 0, i64 %119
  %121 = load i64, ptr %120, align 8, !tbaa !10
  %122 = load ptr, ptr %7, align 8, !tbaa !69
  %123 = getelementptr inbounds nuw %struct.H5O_layout_chunk_t, ptr %122, i32 0, i32 3
  %124 = load i32, ptr %10, align 4, !tbaa !12
  %125 = zext i32 %124 to i64
  %126 = getelementptr inbounds nuw [33 x i32], ptr %123, i64 0, i64 %125
  %127 = load i32, ptr %126, align 4, !tbaa !12
  %128 = zext i32 %127 to i64
  %129 = mul i64 %121, %128
  store i64 %129, ptr %9, align 8, !tbaa !10
  br label %130

130:                                              ; preds = %115
  call void @llvm.lifetime.start.p0(i64 8, ptr %11) #8
  %131 = load i64, ptr %9, align 8, !tbaa !10
  store i64 %131, ptr %11, align 8, !tbaa !10
  call void @llvm.lifetime.start.p0(i64 8, ptr %12) #8
  call void @llvm.lifetime.start.p0(i64 8, ptr %13) #8
  %132 = load ptr, ptr %5, align 8, !tbaa !97
  store ptr %132, ptr %13, align 8, !tbaa !97
  store i64 0, ptr %12, align 8, !tbaa !10
  br label %133

133:                                              ; preds = %142, %130
  %134 = load i64, ptr %12, align 8, !tbaa !10
  %135 = icmp ult i64 %134, 8
  br i1 %135, label %136, label %147

136:                                              ; preds = %133
  %137 = load i64, ptr %11, align 8, !tbaa !10
  %138 = and i64 %137, 255
  %139 = trunc i64 %138 to i8
  %140 = load ptr, ptr %13, align 8, !tbaa !97
  %141 = getelementptr inbounds nuw i8, ptr %140, i32 1
  store ptr %141, ptr %13, align 8, !tbaa !97
  store i8 %139, ptr %140, align 1, !tbaa !24
  br label %142

142:                                              ; preds = %136
  %143 = load i64, ptr %12, align 8, !tbaa !10
  %144 = add i64 %143, 1
  store i64 %144, ptr %12, align 8, !tbaa !10
  %145 = load i64, ptr %11, align 8, !tbaa !10
  %146 = lshr i64 %145, 8
  store i64 %146, ptr %11, align 8, !tbaa !10
  br label %133, !llvm.loop !100

147:                                              ; preds = %133
  br label %148

148:                                              ; preds = %154, %147
  %149 = load i64, ptr %12, align 8, !tbaa !10
  %150 = icmp ult i64 %149, 8
  br i1 %150, label %151, label %157

151:                                              ; preds = %148
  %152 = load ptr, ptr %13, align 8, !tbaa !97
  %153 = getelementptr inbounds nuw i8, ptr %152, i32 1
  store ptr %153, ptr %13, align 8, !tbaa !97
  store i8 0, ptr %152, align 1, !tbaa !24
  br label %154

154:                                              ; preds = %151
  %155 = load i64, ptr %12, align 8, !tbaa !10
  %156 = add i64 %155, 1
  store i64 %156, ptr %12, align 8, !tbaa !10
  br label %148, !llvm.loop !101

157:                                              ; preds = %148
  %158 = load ptr, ptr %5, align 8, !tbaa !97
  %159 = getelementptr inbounds i8, ptr %158, i64 8
  store ptr %159, ptr %5, align 8, !tbaa !97
  call void @llvm.lifetime.end.p0(i64 8, ptr %13) #8
  call void @llvm.lifetime.end.p0(i64 8, ptr %12) #8
  call void @llvm.lifetime.end.p0(i64 8, ptr %11) #8
  br label %160

160:                                              ; preds = %157
  br label %161

161:                                              ; preds = %160
  br label %162

162:                                              ; preds = %161
  %163 = load i32, ptr %10, align 4, !tbaa !12
  %164 = add i32 %163, 1
  store i32 %164, ptr %10, align 4, !tbaa !12
  br label %109, !llvm.loop !102

165:                                              ; preds = %109
  br label %166

166:                                              ; preds = %165, %21
  call void @llvm.lifetime.end.p0(i64 4, ptr %10) #8
  call void @llvm.lifetime.end.p0(i64 8, ptr %9) #8
  call void @llvm.lifetime.end.p0(i64 8, ptr %8) #8
  call void @llvm.lifetime.end.p0(i64 8, ptr %7) #8
  ret i32 0
}