; Function Attrs: nofree norecurse nosync nounwind memory(read, argmem: readwrite, inaccessiblemem: none) uwtable
define internal noundef i32 @H5D__btree_encode_key(ptr noundef readonly captures(none) %0, ptr noundef writeonly captures(none) %1, ptr noundef readonly captures(none) %2) #12 {
  %4 = load i8, ptr @H5D_init_g, align 1, !tbaa !3, !range !7, !noundef !8
  %5 = trunc nuw i8 %4 to i1
  %6 = load i8, ptr @H5_libterm_g, align 1, !range !7
  %7 = trunc nuw i8 %6 to i1
  %8 = xor i1 %7, true
  %9 = select i1 %5, i1 true, i1 %8
  br i1 %9, label %10, label %.loopexit, !prof !9

10:                                               ; preds = %3
  %11 = getelementptr inbounds nuw i8, ptr %0, i64 72
  %12 = load ptr, ptr %11, align 8, !tbaa !47
  %13 = getelementptr inbounds nuw i8, ptr %2, i64 264
  %14 = load i32, ptr %13, align 8, !tbaa !57
  %15 = trunc i32 %14 to i8
  store i8 %15, ptr %1, align 1, !tbaa !17
  %16 = getelementptr inbounds nuw i8, ptr %1, i64 1
  %17 = load i32, ptr %13, align 8, !tbaa !57
  %18 = lshr i32 %17, 8
  %19 = trunc i32 %18 to i8
  store i8 %19, ptr %16, align 1, !tbaa !17
  %20 = getelementptr inbounds nuw i8, ptr %1, i64 2
  %21 = load i32, ptr %13, align 8, !tbaa !57
  %22 = lshr i32 %21, 16
  %23 = trunc i32 %22 to i8
  store i8 %23, ptr %20, align 1, !tbaa !17
  %24 = getelementptr inbounds nuw i8, ptr %1, i64 3
  %25 = load i32, ptr %13, align 8, !tbaa !57
  %26 = lshr i32 %25, 24
  %27 = trunc nuw i32 %26 to i8
  store i8 %27, ptr %24, align 1, !tbaa !17
  %28 = getelementptr inbounds nuw i8, ptr %1, i64 4
  %29 = getelementptr inbounds nuw i8, ptr %2, i64 268
  %30 = load i32, ptr %29, align 4, !tbaa !60
  %31 = trunc i32 %30 to i8
  store i8 %31, ptr %28, align 1, !tbaa !17
  %32 = getelementptr inbounds nuw i8, ptr %1, i64 5
  %33 = load i32, ptr %29, align 4, !tbaa !60
  %34 = lshr i32 %33, 8
  %35 = trunc i32 %34 to i8
  store i8 %35, ptr %32, align 1, !tbaa !17
  %36 = getelementptr inbounds nuw i8, ptr %1, i64 6
  %37 = load i32, ptr %29, align 4, !tbaa !60
  %38 = lshr i32 %37, 16
  %39 = trunc i32 %38 to i8
  store i8 %39, ptr %36, align 1, !tbaa !17
  %40 = getelementptr inbounds nuw i8, ptr %1, i64 7
  %41 = load i32, ptr %29, align 4, !tbaa !60
  %42 = lshr i32 %41, 24
  %43 = trunc nuw i32 %42 to i8
  store i8 %43, ptr %40, align 1, !tbaa !17
  %44 = getelementptr inbounds nuw i8, ptr %12, i64 8
  %45 = load i32, ptr %44, align 8, !tbaa !40
  %.not = icmp eq i32 %45, 0
  br i1 %.not, label %.loopexit, label %.lr.ph

.lr.ph:                                           ; preds = %10
  %46 = getelementptr inbounds nuw i8, ptr %12, i64 12
  br label %47

47:                                               ; preds = %.lr.ph, %59
  %indvars.iv = phi i64 [ 0, %.lr.ph ], [ %indvars.iv.next, %59 ]
  %.pn = phi ptr [ %1, %.lr.ph ], [ %.04753, %59 ]
  %.04753 = getelementptr inbounds nuw i8, ptr %.pn, i64 8
  %48 = getelementptr inbounds nuw [33 x i64], ptr %2, i64 0, i64 %indvars.iv
  %49 = load i64, ptr %48, align 8, !tbaa !20
  %50 = getelementptr inbounds nuw [33 x i32], ptr %46, i64 0, i64 %indvars.iv
  %51 = load i32, ptr %50, align 4, !tbaa !36
  %52 = zext i32 %51 to i64
  %53 = mul i64 %49, %52
  br label %54

54:                                               ; preds = %47, %54
  %.050 = phi ptr [ %.04753, %47 ], [ %56, %54 ]
  %.04349 = phi i64 [ 0, %47 ], [ %57, %54 ]
  %.04548 = phi i64 [ %53, %47 ], [ %58, %54 ]
  %55 = trunc i64 %.04548 to i8
  %56 = getelementptr inbounds nuw i8, ptr %.050, i64 1
  store i8 %55, ptr %.050, align 1, !tbaa !17
  %57 = add nuw nsw i64 %.04349, 1
  %58 = lshr i64 %.04548, 8
  %exitcond.not = icmp eq i64 %57, 8
  br i1 %exitcond.not, label %59, label %54, !llvm.loop !75

59:                                               ; preds = %54
  %indvars.iv.next = add nuw nsw i64 %indvars.iv, 1
  %60 = load i32, ptr %44, align 8, !tbaa !40
  %61 = zext i32 %60 to i64
  %62 = icmp samesign ult i64 %indvars.iv.next, %61
  br i1 %62, label %47, label %.loopexit, !llvm.loop !76

.loopexit:                                        ; preds = %59, %10, %3
  ret i32 0
}